; ModuleID = 'source-C-CXX/53/726.c'
source_filename = "source-C-CXX/53/726.c"
target datalayout = "e-m:e-p270:32:32-p271:32:32-p272:64:64-i64:64-f80:128-n8:16:32:64-S128"
target triple = "x86_64-pc-linux-gnu"

@.str = private unnamed_addr constant [8 x i8] c"%ld %ld\00", align 1
@.str.1 = private unnamed_addr constant [3 x i8] c"%d\00", align 1

; Function Attrs: nofree nounwind sspstrong uwtable
define dso_local void @main() local_unnamed_addr #0 {
  %1 = alloca i64, align 8
  %2 = alloca i64, align 8
  %3 = bitcast i64* %1 to i8*
  call void @llvm.lifetime.start.p0i8(i64 8, i8* nonnull %3) #3
  %4 = bitcast i64* %2 to i8*
  call void @llvm.lifetime.start.p0i8(i64 8, i8* nonnull %4) #3
  %5 = call i32 (i8*, ...) @__isoc99_scanf(i8* getelementptr inbounds ([8 x i8], [8 x i8]* @.str, i64 0, i64 0), i64* nonnull %2, i64* nonnull %1)
  %6 = load i64, i64* %2, align 8, !tbaa !5
  %7 = add nsw i64 %6, -1
  %8 = load i64, i64* %1, align 8
  %9 = icmp sgt i64 %6, 0
  br i1 %9, label %10, label %25

10:                                               ; preds = %0, %23
  %11 = phi i64 [ %24, %23 ], [ 1, %0 ]
  br label %12

12:                                               ; preds = %18, %10
  %13 = phi i64 [ %11, %10 ], [ %21, %18 ]
  %14 = phi i64 [ %6, %10 ], [ %19, %18 ]
  %15 = srem i64 %13, %7
  %16 = sdiv i64 %13, %7
  %17 = icmp eq i64 %15, 0
  br i1 %17, label %18, label %23

18:                                               ; preds = %12
  %19 = add nsw i64 %14, -1
  %20 = mul nsw i64 %16, %6
  %21 = add nsw i64 %20, %8
  %22 = icmp sgt i64 %14, 1
  br i1 %22, label %12, label %25, !llvm.loop !9

23:                                               ; preds = %12
  %24 = add nuw nsw i64 %11, 1
  br label %10

25:                                               ; preds = %18, %0
  %26 = phi i64 [ 1, %0 ], [ %21, %18 ]
  %27 = call i32 (i8*, ...) @printf(i8* nonnull dereferenceable(1) getelementptr inbounds ([3 x i8], [3 x i8]* @.str.1, i64 0, i64 0), i64 %26)
  call void @llvm.lifetime.end.p0i8(i64 8, i8* nonnull %4) #3
  call void @llvm.lifetime.end.p0i8(i64 8, i8* nonnull %3) #3
  ret void
}

; Function Attrs: argmemonly mustprogress nofree nosync nounwind willreturn
declare void @llvm.lifetime.start.p0i8(i64 immarg, i8* nocapture) #1

; Function Attrs: nofree nounwind
declare noundef i32 @__isoc99_scanf(i8* nocapture noundef readonly, ...) local_unnamed_addr #2

; Function Attrs: nofree nounwind
declare noundef i32 @printf(i8* nocapture noundef readonly, ...) local_unnamed_addr #2

; Function Attrs: argmemonly mustprogress nofree nosync nounwind willreturn
declare void @llvm.lifetime.end.p0i8(i64 immarg, i8* nocapture) #1


!llvm.module.flags = !{!0, !1, !2, !3}
!llvm.ident = !{!4}

!0 = !{i32 1, !"wchar_size", i32 4}
!1 = !{i32 7, !"PIC Level", i32 2}
!2 = !{i32 7, !"PIE Level", i32 2}
!3 = !{i32 7, !"uwtable", i32 1}
!4 = !{!"clang version 13.0.0"}
!5 = !{!6, !6, i64 0}
!6 = !{!"long", !7, i64 0}
!7 = !{!"omnipotent char", !8, i64 0}
!8 = !{!"Simple C/C++ TBAA"}
!9 = distinct !{!9, !10}
!10 = !{!"llvm.loop.mustprogress"}
